; Function Attrs: nounwind uwtable
define i32 @lv_draw_buf_width_to_stride(i32 noundef %0, i32 noundef %1) local_unnamed_addr #0 {
  %3 = load ptr, ptr getelementptr inbounds nuw (i8, ptr @lv_global, i64 392), align 8, !tbaa !10
  %.not.i = icmp eq ptr %3, null
  br i1 %.not.i, label %lv_draw_buf_width_to_stride_ex.exit, label %4

4:                                                ; preds = %2
  %5 = tail call i32 %3(i32 noundef %0, i32 noundef %1) #9
  br label %lv_draw_buf_width_to_stride_ex.exit

lv_draw_buf_width_to_stride_ex.exit:              ; preds = %2, %4
  %.0.i = phi i32 [ %5, %4 ], [ 0, %2 ]
  ret i32 %.0.i
}